target datalayout = "e-m:e-p270:32:32-p271:32:32-p272:64:64-i64:64-i128:128-f80:128-n8:16:32:64-S128"
target triple = "x86_64-pc-linux-gnu"

%struct.curl_trc_feat = type { ptr, i32 }
%struct.Curl_easy = type { i32, i64, i64, ptr, %struct.Curl_llist_node, %struct.Curl_llist_node, i32, i32, %struct.Curl_message, %struct.easy_pollset, %struct.Names, ptr, ptr, ptr, ptr, %struct.SingleRequest, %struct.UserDefined, ptr, ptr, ptr, %struct.Progress, %struct.UrlState, ptr, %struct.PureInfo, %struct.curl_tlssessioninfo }
%struct.Curl_llist_node = type { ptr, ptr, ptr, ptr }
%struct.Curl_message = type { %struct.Curl_llist_node, %struct.CURLMsg }
%struct.CURLMsg = type { i32, ptr, %union.anon }
%union.anon = type { ptr }
%struct.easy_pollset = type { [5 x i32], i32, [5 x i8] }
%struct.Names = type { ptr, i32 }
%struct.SingleRequest = type <{ i64, i64, i64, i64, %struct.curltime, i32, i32, i32, i32, i64, i32, i32, i8, i8, [2 x i8], i32, ptr, ptr, %struct.bufq, i64, i64, ptr, ptr, %union.anon.0, ptr, i8, i32, [3 x i8] }>
%struct.curltime = type { i64, i32 }
%struct.bufq = type { ptr, ptr, ptr, ptr, i64, i64, i64, i32 }
%union.anon.0 = type { ptr }
%struct.UserDefined = type <{ ptr, ptr, ptr, ptr, ptr, ptr, i64, i64, i64, ptr, ptr, i64, ptr, ptr, ptr, ptr, ptr, ptr, ptr, ptr, ptr, ptr, ptr, ptr, ptr, ptr, ptr, ptr, ptr, ptr, ptr, ptr, ptr, ptr, ptr, i64, i64, i64, i64, i64, i64, i64, i64, i64, ptr, ptr, %struct.curl_mimepart, ptr, ptr, ptr, i64, %struct.ssl_config_data, %struct.ssl_config_data, ptr, i16, i8, i8, %struct.ssl_general_config, i32, i32, i32, [4 x i8], ptr, ptr, i64, i32, i8, i8, i8, i8, ptr, ptr, ptr, i32, [4 x i8], [74 x ptr], [8 x ptr], i32, i32, i32, [4 x i8], ptr, i32, [4 x i8], ptr, ptr, ptr, ptr, ptr, i32, i32, i32, i32, i32, i32, i32, i32, i64, ptr, ptr, i64, ptr, i64, ptr, ptr, ptr, ptr, i32, i16, i16, i16, i8, i8, i8, i8, i8, i8, i8, i8, i64, [6 x i8] }>
%struct.curl_mimepart = type { ptr, ptr, i32, i32, ptr, ptr, ptr, ptr, ptr, ptr, ptr, ptr, ptr, ptr, ptr, i64, %struct.mime_state, ptr, %struct.mime_encoder_state, i64 }
%struct.mime_state = type { i32, ptr, i64 }
%struct.mime_encoder_state = type { i64, i64, i64, [256 x i8] }
%struct.ssl_config_data = type { %struct.ssl_primary_config, i64, ptr, ptr, ptr, ptr, ptr, ptr, ptr, i16 }
%struct.ssl_primary_config = type { ptr, ptr, ptr, ptr, ptr, ptr, ptr, ptr, ptr, ptr, ptr, ptr, ptr, ptr, i8, i32, i8, i8 }
%struct.ssl_general_config = type { i32 }
%struct.Progress = type { i64, %struct.pgrs_dir, %struct.pgrs_dir, i64, i64, i32, i32, i64, i64, i64, i64, i64, i64, i64, i64, i64, %struct.curltime, %struct.curltime, %struct.curltime, %struct.curltime, %struct.curltime, [6 x i64], [6 x %struct.curltime], i32, i8 }
%struct.pgrs_dir = type { i64, i64, i64, %struct.pgrs_measure }
%struct.pgrs_measure = type { %struct.curltime, i64 }
%struct.UrlState = type { %struct.curltime, i64, i64, %struct.dynbuf, ptr, i64, ptr, i32, i32, i32, ptr, i32, i64, i32, ptr, %struct.digestdata, %struct.digestdata, %struct.auth, %struct.auth, %struct.Curl_async, ptr, i8, %struct.curltime, %struct.Curl_tree, %struct.Curl_llist, [15 x %struct.time_node], ptr, ptr, i64, i64, i64, i64, [32 x i8], i64, ptr, ptr, ptr, %struct.urlpieces, ptr, ptr, ptr, ptr, ptr, i64, %struct.dynbuf, %struct.Curl_llist, [2 x %struct.curl_header], ptr, i32, ptr, ptr, %struct.store_netrc, %struct.dynamically_allocated_data, i8, i8, i8, i8, i32 }
%struct.digestdata = type { ptr, ptr, ptr, ptr, ptr, ptr, i32, i8, i8 }
%struct.auth = type { i64, i64, i64, i8 }
%struct.Curl_async = type { ptr, ptr, ptr, ptr, i32, i32, i8 }
%struct.Curl_tree = type { ptr, ptr, ptr, ptr, %struct.curltime, ptr }
%struct.time_node = type { %struct.Curl_llist_node, %struct.curltime, i32 }
%struct.urlpieces = type { ptr, ptr, ptr, ptr, ptr, ptr, ptr, ptr }
%struct.dynbuf = type { ptr, i64, i64, i64 }
%struct.Curl_llist = type { ptr, ptr, ptr, i64 }
%struct.curl_header = type { ptr, ptr, i64, i64, i32, ptr }
%struct.store_netrc = type { %struct.dynbuf, ptr, i8 }
%struct.dynamically_allocated_data = type { ptr, ptr, ptr, ptr, ptr, ptr, ptr, ptr, ptr, ptr, ptr, ptr, ptr, ptr }
%struct.PureInfo = type { i32, i32, i32, i64, i64, i64, i64, i64, i64, i64, ptr, ptr, i64, i32, %struct.ip_quadruple, i32, ptr, i32, %struct.curl_certinfo, i32, i8 }
%struct.ip_quadruple = type { [46 x i8], [46 x i8], i32, i32 }
%struct.curl_certinfo = type { i32, ptr }
%struct.curl_tlssessioninfo = type { i32, ptr }
%struct.connectdata = type { %struct.Curl_llist_node, ptr, ptr, i64, ptr, i64, ptr, ptr, %struct.hostname, ptr, ptr, %struct.hostname, %struct.proxy_info, %struct.proxy_info, %struct.ip_quadruple, %struct.ip_quadruple, ptr, ptr, ptr, ptr, ptr, %struct.curltime, %struct.curltime, %struct.curltime, [2 x i32], [2 x ptr], [2 x ptr], [2 x ptr], %struct.anon, %struct.easy_pollset, %struct.ssl_primary_config, %struct.ssl_primary_config, %struct.ConnectBits, ptr, ptr, %struct.curltime, i32, i32, %struct.Curl_llist, i32, i32, %struct.ntlmdata, %struct.ntlmdata, %union.anon.1, ptr, ptr, i16, i32, i32, i32, i32, i16, i16, i8, i8, i8, i8, i8, i8, i8 }
%struct.hostname = type { ptr, ptr, ptr, ptr }
%struct.proxy_info = type { %struct.hostname, i32, i8, ptr, ptr }
%struct.anon = type { [2 x %struct.curltime], i32 }
%struct.ConnectBits = type { i64 }
%struct.ntlmdata = type { i32, [8 x i8], i32, ptr }
%union.anon.1 = type { %struct.ftp_conn }
%struct.ftp_conn = type { %struct.pingpong, ptr, ptr, ptr, ptr, ptr, ptr, ptr, i8, i64, ptr, i64, i32, i32, i32, i32, i32, i16, i8, i8, i8, i8, i8 }
%struct.pingpong = type { i64, i8, ptr, i64, i64, %struct.curltime, i64, %struct.dynbuf, %struct.dynbuf, i64, i64, ptr, ptr }

@Curl_trc_feat_ws = external global %struct.curl_trc_feat, align 8
@.str.59 = private unnamed_addr constant [49 x i8] c"ws_send_raw_blocking() partial, %zu left to send\00", align 1
@.str.60 = private unnamed_addr constant [45 x i8] c"Timeout waiting for socket becoming writable\00", align 1
@.str.61 = private unnamed_addr constant [49 x i8] c"Error while waiting for socket becoming writable\00", align 1

; Function Attrs: nounwind uwtable
define internal i32 @ws_send_raw_blocking(ptr noundef %0, ptr noundef %1, ptr noundef %2, i64 noundef %3) #0 {
  %5 = alloca i32, align 4
  %6 = alloca ptr, align 8
  %7 = alloca ptr, align 8
  %8 = alloca ptr, align 8
  %9 = alloca i64, align 8
  %10 = alloca i32, align 4
  %11 = alloca i64, align 8
  %12 = alloca ptr, align 8
  %13 = alloca i32, align 4
  %14 = alloca i32, align 4
  %15 = alloca i64, align 8
  %16 = alloca i32, align 4
  store ptr %0, ptr %6, align 8, !tbaa !19
  store ptr %1, ptr %7, align 8, !tbaa !92
  store ptr %2, ptr %8, align 8, !tbaa !20
  store i64 %3, ptr %9, align 8, !tbaa !17
  call void @llvm.lifetime.start.p0(i64 4, ptr %10) #6
  store i32 0, ptr %10, align 4, !tbaa !10
  call void @llvm.lifetime.start.p0(i64 8, ptr %11) #6
  call void @llvm.lifetime.start.p0(i64 8, ptr %12) #6
  %17 = load ptr, ptr %6, align 8, !tbaa !19
  store ptr %17, ptr %12, align 8, !tbaa !3
  br label %18

18:                                               ; preds = %112, %4
  %19 = load i64, ptr %9, align 8, !tbaa !17
  %20 = icmp ne i64 %19, 0
  br i1 %20, label %21, label %113

21:                                               ; preds = %18
  %22 = load ptr, ptr %12, align 8, !tbaa !3
  %23 = load ptr, ptr %8, align 8, !tbaa !20
  %24 = load i64, ptr %9, align 8, !tbaa !17
  %25 = call i32 @Curl_xfer_send(ptr noundef %22, ptr noundef %23, i64 noundef %24, i1 noundef zeroext false, ptr noundef %11)
  store i32 %25, ptr %10, align 4, !tbaa !10
  %26 = load i32, ptr %10, align 4, !tbaa !10
  %27 = icmp ne i32 %26, 0
  br i1 %27, label %28, label %30

28:                                               ; preds = %21
  %29 = load i32, ptr %10, align 4, !tbaa !10
  store i32 %29, ptr %5, align 4
  store i32 1, ptr %13, align 4
  br label %115

30:                                               ; preds = %21
  br label %31

31:                                               ; preds = %30
  br label %32

32:                                               ; preds = %31
  br label %33

33:                                               ; preds = %32
  %34 = load i64, ptr %11, align 8, !tbaa !17
  %35 = load ptr, ptr %8, align 8, !tbaa !20
  %36 = getelementptr inbounds nuw i8, ptr %35, i64 %34
  store ptr %36, ptr %8, align 8, !tbaa !20
  %37 = load i64, ptr %11, align 8, !tbaa !17
  %38 = load i64, ptr %9, align 8, !tbaa !17
  %39 = sub i64 %38, %37
  store i64 %39, ptr %9, align 8, !tbaa !17
  %40 = load i64, ptr %9, align 8, !tbaa !17
  %41 = icmp ne i64 %40, 0
  br i1 %41, label %42, label %112

42:                                               ; preds = %33
  call void @llvm.lifetime.start.p0(i64 4, ptr %14) #6
  %43 = load ptr, ptr %12, align 8, !tbaa !3
  %44 = getelementptr inbounds nuw %struct.Curl_easy, ptr %43, i32 0, i32 3
  %45 = load ptr, ptr %44, align 8, !tbaa !33
  %46 = getelementptr inbounds nuw %struct.connectdata, ptr %45, i32 0, i32 24
  %47 = getelementptr inbounds [2 x i32], ptr %46, i64 0, i64 0
  %48 = load i32, ptr %47, align 8, !tbaa !10
  store i32 %48, ptr %14, align 4, !tbaa !10
  call void @llvm.lifetime.start.p0(i64 8, ptr %15) #6
  call void @llvm.lifetime.start.p0(i64 4, ptr %16) #6
  br label %49

49:                                               ; preds = %42
  %50 = load ptr, ptr %12, align 8, !tbaa !3
  %51 = icmp ne ptr %50, null
  br i1 %51, label %52, label %81

52:                                               ; preds = %49
  %53 = load ptr, ptr %12, align 8, !tbaa !3
  %54 = getelementptr inbounds nuw %struct.Curl_easy, ptr %53, i32 0, i32 16
  %55 = getelementptr inbounds nuw %struct.UserDefined, ptr %54, i32 0, i32 119
  %56 = load i64, ptr %55, align 2
  %57 = lshr i64 %56, 31
  %58 = and i64 %57, 1
  %59 = trunc i64 %58 to i32
  %60 = icmp ne i32 %59, 0
  br i1 %60, label %61, label %81

61:                                               ; preds = %52
  %62 = load ptr, ptr %12, align 8, !tbaa !3
  %63 = getelementptr inbounds nuw %struct.Curl_easy, ptr %62, i32 0, i32 21
  %64 = getelementptr inbounds nuw %struct.UrlState, ptr %63, i32 0, i32 50
  %65 = load ptr, ptr %64, align 8, !tbaa !94
  %66 = icmp ne ptr %65, null
  br i1 %66, label %67, label %75

67:                                               ; preds = %61
  %68 = load ptr, ptr %12, align 8, !tbaa !3
  %69 = getelementptr inbounds nuw %struct.Curl_easy, ptr %68, i32 0, i32 21
  %70 = getelementptr inbounds nuw %struct.UrlState, ptr %69, i32 0, i32 50
  %71 = load ptr, ptr %70, align 8, !tbaa !94
  %72 = getelementptr inbounds nuw %struct.curl_trc_feat, ptr %71, i32 0, i32 1
  %73 = load i32, ptr %72, align 8, !tbaa !95
  %74 = icmp sge i32 %73, 1
  br i1 %74, label %75, label %81

75:                                               ; preds = %67, %61
  %76 = load i32, ptr getelementptr inbounds nuw (%struct.curl_trc_feat, ptr @Curl_trc_feat_ws, i32 0, i32 1), align 8, !tbaa !95
  %77 = icmp sge i32 %76, 1
  br i1 %77, label %78, label %81

78:                                               ; preds = %75
  %79 = load ptr, ptr %12, align 8, !tbaa !3
  %80 = load i64, ptr %9, align 8, !tbaa !17
  call void (ptr, ptr, ...) @Curl_trc_ws(ptr noundef %79, ptr noundef @.str.59, i64 noundef %80)
  br label %81

81:                                               ; preds = %78, %75, %67, %52, %49
  br label %82

82:                                               ; preds = %81
  br label %83

83:                                               ; preds = %82
  %84 = load ptr, ptr %12, align 8, !tbaa !3
  %85 = call i64 @Curl_timeleft(ptr noundef %84, ptr noundef null, i1 noundef zeroext false)
  store i64 %85, ptr %15, align 8, !tbaa !17
  %86 = load i64, ptr %15, align 8, !tbaa !17
  %87 = icmp slt i64 %86, 0
  br i1 %87, label %88, label %90

88:                                               ; preds = %83
  %89 = load ptr, ptr %12, align 8, !tbaa !3
  call void (ptr, ptr, ...) @Curl_failf(ptr noundef %89, ptr noundef @.str.60)
  store i32 55, ptr %5, align 4
  store i32 1, ptr %13, align 4
  br label %109

90:                                               ; preds = %83
  %91 = load i32, ptr %14, align 4, !tbaa !10
  %92 = icmp eq i32 %91, -1
  br i1 %92, label %93, label %94

93:                                               ; preds = %90
  store i32 55, ptr %5, align 4
  store i32 1, ptr %13, align 4
  br label %109

94:                                               ; preds = %90
  %95 = load i32, ptr %14, align 4, !tbaa !10
  %96 = load i64, ptr %15, align 8, !tbaa !17
  %97 = icmp ne i64 %96, 0
  br i1 %97, label %98, label %100

98:                                               ; preds = %94
  %99 = load i64, ptr %15, align 8, !tbaa !17
  br label %101

100:                                              ; preds = %94
  br label %101

101:                                              ; preds = %100, %98
  %102 = phi i64 [ %99, %98 ], [ 500, %100 ]
  %103 = call i32 @Curl_socket_check(i32 noundef -1, i32 noundef -1, i32 noundef %95, i64 noundef %102)
  store i32 %103, ptr %16, align 4, !tbaa !10
  %104 = load i32, ptr %16, align 4, !tbaa !10
  %105 = icmp slt i32 %104, 0
  br i1 %105, label %106, label %108

106:                                              ; preds = %101
  %107 = load ptr, ptr %12, align 8, !tbaa !3
  call void (ptr, ptr, ...) @Curl_failf(ptr noundef %107, ptr noundef @.str.61)
  store i32 55, ptr %5, align 4
  store i32 1, ptr %13, align 4
  br label %109

108:                                              ; preds = %101
  store i32 0, ptr %13, align 4
  br label %109

109:                                              ; preds = %108, %106, %93, %88
  call void @llvm.lifetime.end.p0(i64 4, ptr %16) #6
  call void @llvm.lifetime.end.p0(i64 8, ptr %15) #6
  call void @llvm.lifetime.end.p0(i64 4, ptr %14) #6
  %110 = load i32, ptr %13, align 4
  switch i32 %110, label %115 [
    i32 0, label %111
  ]

111:                                              ; preds = %109
  br label %112

112:                                              ; preds = %111, %33
  br label %18, !llvm.loop !176

113:                                              ; preds = %18
  %114 = load i32, ptr %10, align 4, !tbaa !10
  store i32 %114, ptr %5, align 4
  store i32 1, ptr %13, align 4
  br label %115

115:                                              ; preds = %113, %109, %28
  call void @llvm.lifetime.end.p0(i64 8, ptr %12) #6
  call void @llvm.lifetime.end.p0(i64 8, ptr %11) #6
  call void @llvm.lifetime.end.p0(i64 4, ptr %10) #6
  %116 = load i32, ptr %5, align 4
  ret i32 %116
}