; Function Attrs: nounwind uwtable
define internal fastcc i32 @ws_send_raw_blocking(ptr noundef %0, ptr noundef %1, i64 noundef %2) unnamed_addr #0 {
  %4 = alloca i64, align 8
  call void @llvm.lifetime.start.p0(i64 8, ptr nonnull %4) #7
  %.not1 = icmp eq i64 %2, 0
  br i1 %.not1, label %.critedge, label %.lr.ph

.lr.ph:                                           ; preds = %3
  %5 = getelementptr inbounds nuw i8, ptr %0, i64 24
  %6 = getelementptr inbounds nuw i8, ptr %0, i64 2658
  %7 = getelementptr inbounds nuw i8, ptr %0, i64 4864
  br label %8

8:                                                ; preds = %35, %.lr.ph
  %.0293 = phi ptr [ %1, %.lr.ph ], [ %12, %35 ]
  %.0302 = phi i64 [ %2, %.lr.ph ], [ %13, %35 ]
  %9 = call i32 @Curl_xfer_send(ptr noundef %0, ptr noundef %.0293, i64 noundef %.0302, i1 noundef zeroext false, ptr noundef nonnull %4) #7
  %.not40 = icmp eq i32 %9, 0
  br i1 %.not40, label %10, label %.critedge

10:                                               ; preds = %8
  %11 = load i64, ptr %4, align 8, !tbaa !9
  %12 = getelementptr inbounds nuw i8, ptr %.0293, i64 %11
  %13 = sub i64 %.0302, %11
  %cond = icmp eq i64 %13, 0
  br i1 %cond, label %.critedge, label %14

14:                                               ; preds = %10
  %15 = load ptr, ptr %5, align 8, !tbaa !26
  %16 = getelementptr inbounds nuw i8, ptr %15, i64 568
  %17 = load i32, ptr %16, align 8, !tbaa !96
  %18 = load i64, ptr %6, align 2
  %19 = and i64 %18, 2147483648
  %.not43 = icmp eq i64 %19, 0
  br i1 %.not43, label %30, label %20

20:                                               ; preds = %14
  %21 = load ptr, ptr %7, align 8, !tbaa !85
  %.not44 = icmp eq ptr %21, null
  br i1 %.not44, label %28, label %22

22:                                               ; preds = %20
  %23 = getelementptr inbounds nuw i8, ptr %21, i64 8
  %24 = load i32, ptr %23, align 8, !tbaa !86
  %25 = icmp sgt i32 %24, 0
  %26 = load i32, ptr getelementptr inbounds nuw (i8, ptr @Curl_trc_feat_ws, i64 8), align 8
  %27 = icmp sgt i32 %26, 0
  %or.cond = select i1 %25, i1 %27, i1 false
  br i1 %or.cond, label %29, label %30

28:                                               ; preds = %20
  %.old = load i32, ptr getelementptr inbounds nuw (i8, ptr @Curl_trc_feat_ws, i64 8), align 8, !tbaa !86
  %.old1 = icmp sgt i32 %.old, 0
  br i1 %.old1, label %29, label %30

29:                                               ; preds = %22, %28
  call void (ptr, ptr, ...) @Curl_trc_ws(ptr noundef nonnull %0, ptr noundef nonnull @.str.59, i64 noundef %13) #7
  br label %30

30:                                               ; preds = %29, %28, %22, %14
  %31 = call i64 @Curl_timeleft(ptr noundef nonnull %0, ptr noundef null, i1 noundef zeroext false) #7
  %32 = icmp slt i64 %31, 0
  br i1 %32, label %.critedge.sink.split, label %33

33:                                               ; preds = %30
  %34 = icmp eq i32 %17, -1
  br i1 %34, label %.critedge, label %35

35:                                               ; preds = %33
  %.not45 = icmp eq i64 %31, 0
  %36 = select i1 %.not45, i64 500, i64 %31
  %37 = call i32 @Curl_socket_check(i32 noundef -1, i32 noundef -1, i32 noundef %17, i64 noundef %36) #7
  %38 = icmp slt i32 %37, 0
  br i1 %38, label %.critedge.sink.split, label %8

.critedge.sink.split:                             ; preds = %35, %30
  %.str.60.sink = phi ptr [ @.str.60, %30 ], [ @.str.61, %35 ]
  call void (ptr, ptr, ...) @Curl_failf(ptr noundef nonnull %0, ptr noundef nonnull %.str.60.sink) #7
  br label %.critedge

.critedge:                                        ; preds = %10, %8, %33, %.critedge.sink.split, %3
  %.1 = phi i32 [ 0, %3 ], [ 55, %.critedge.sink.split ], [ 55, %33 ], [ 0, %10 ], [ %9, %8 ]
  call void @llvm.lifetime.end.p0(i64 8, ptr nonnull %4) #7
  ret i32 %.1
}